; Function Attrs: mustprogress nounwind uwtable
define dso_local void @_ZN9CGContextD2Ev(ptr noundef nonnull align 8 dereferenceable(216) %0) unnamed_addr #3 align 2 personality ptr @__gxx_personality_v0 {
  %2 = getelementptr inbounds nuw i8, ptr %0, i64 136
  tail call void @_ZN6EffectD1Ev(ptr noundef nonnull align 8 dereferenceable(74) %2) #20
  %3 = getelementptr inbounds nuw i8, ptr %0, i64 64
  %4 = getelementptr inbounds nuw i8, ptr %0, i64 80
  %5 = load ptr, ptr %4, align 8
  invoke void @_ZNSt8_Rb_treeIPK8VariableSt4pairIKS2_jESt10_Select1stIS5_ESt4lessIS2_ESaIS5_EE8_M_eraseEPSt13_Rb_tree_nodeIS5_E(ptr noundef nonnull align 8 dereferenceable(48) %3, ptr noundef %5)
          to label %_ZNSt3mapIPK8VariablejSt4lessIS2_ESaISt4pairIKS2_jEEED2Ev.exit unwind label %6

6:                                                ; preds = %1
  %7 = landingpad { ptr, i32 }
          catch ptr null
  %8 = extractvalue { ptr, i32 } %7, 0
  tail call void @__clang_call_terminate(ptr %8) #21
  unreachable

_ZNSt3mapIPK8VariablejSt4lessIS2_ESaISt4pairIKS2_jEEED2Ev.exit: ; preds = %1
  %9 = getelementptr inbounds nuw i8, ptr %0, i64 24
  %10 = load ptr, ptr %9, align 8
  %.not.i.i.i = icmp eq ptr %10, null
  br i1 %.not.i.i.i, label %_ZNSt6vectorIPK5BlockSaIS2_EED2Ev.exit, label %11

11:                                               ; preds = %_ZNSt3mapIPK8VariablejSt4lessIS2_ESaISt4pairIKS2_jEEED2Ev.exit
  tail call void @_ZdlPv(ptr noundef nonnull %10) #19
  br label %_ZNSt6vectorIPK5BlockSaIS2_EED2Ev.exit

_ZNSt6vectorIPK5BlockSaIS2_EED2Ev.exit:           ; preds = %_ZNSt3mapIPK8VariablejSt4lessIS2_ESaISt4pairIKS2_jEEED2Ev.exit, %11
  ret void
}